; ModuleID = '36/1318.c'
source_filename = "36/1318.c"
target datalayout = "e-m:e-p270:32:32-p271:32:32-p272:64:64-i64:64-f80:128-n8:16:32:64-S128"
target triple = "x86_64-pc-linux-gnu"

@.str = private unnamed_addr constant [5 x i8] c"%s%s\00", align 1
@.str.1 = private unnamed_addr constant [5 x i8] c"YES\0A\00", align 1
@.str.2 = private unnamed_addr constant [4 x i8] c"NO\0A\00", align 1

; Function Attrs: noinline nounwind uwtable
define dso_local i32 @main(i32 %0, i8** %1) #0 {
  %3 = alloca i32, align 4
  %4 = alloca i32, align 4
  %5 = alloca i8**, align 8
  %6 = alloca i32, align 4
  %7 = alloca i32, align 4
  %8 = alloca i32, align 4
  %9 = alloca i32, align 4
  %10 = alloca i32, align 4
  %11 = alloca i32, align 4
  %12 = alloca [1000 x i8], align 16
  %13 = alloca [1000 x i8], align 16
  store i32 0, i32* %3, align 4
  store i32 %0, i32* %4, align 4
  store i8** %1, i8*** %5, align 8
  %14 = getelementptr inbounds [1000 x i8], [1000 x i8]* %12, i64 0, i64 0
  call void @llvm.memset.p0i8.i64(i8* align 16 %14, i8 0, i64 1000, i1 false)
  %15 = getelementptr inbounds [1000 x i8], [1000 x i8]* %13, i64 0, i64 0
  call void @llvm.memset.p0i8.i64(i8* align 16 %15, i8 0, i64 1000, i1 false)
  %16 = getelementptr inbounds [1000 x i8], [1000 x i8]* %12, i64 0, i64 0
  %17 = getelementptr inbounds [1000 x i8], [1000 x i8]* %13, i64 0, i64 0
  %18 = call i32 (i8*, ...) @__isoc99_scanf(i8* getelementptr inbounds ([5 x i8], [5 x i8]* @.str, i64 0, i64 0), i8* %16, i8* %17)
  %19 = getelementptr inbounds [1000 x i8], [1000 x i8]* %12, i64 0, i64 0
  %20 = call i64 @strlen(i8* %19) #4
  %21 = trunc i64 %20 to i32
  store i32 %21, i32* %10, align 4
  %22 = getelementptr inbounds [1000 x i8], [1000 x i8]* %12, i64 0, i64 0
  %23 = call i64 @strlen(i8* %22) #4
  %24 = trunc i64 %23 to i32
  store i32 %24, i32* %11, align 4
  %25 = getelementptr inbounds [1000 x i8], [1000 x i8]* %12, i64 0, i64 0
  %26 = load i32, i32* %10, align 4
  %27 = sext i32 %26 to i64
  call void @qsort(i8* %25, i64 %27, i64 1, i32 (i8*, i8*)* @compare)
  %28 = getelementptr inbounds [1000 x i8], [1000 x i8]* %13, i64 0, i64 0
  %29 = load i32, i32* %11, align 4
  %30 = sext i32 %29 to i64
  call void @qsort(i8* %28, i64 %30, i64 1, i32 (i8*, i8*)* @compare)
  %31 = getelementptr inbounds [1000 x i8], [1000 x i8]* %12, i64 0, i64 0
  %32 = getelementptr inbounds [1000 x i8], [1000 x i8]* %13, i64 0, i64 0
  %33 = call i32 @strcmp(i8* %31, i8* %32) #4
  %34 = icmp eq i32 %33, 0
  br i1 %34, label %35, label %37

35:                                               ; preds = %2
  %36 = call i32 (i8*, ...) @printf(i8* getelementptr inbounds ([5 x i8], [5 x i8]* @.str.1, i64 0, i64 0))
  br label %39

37:                                               ; preds = %2
  %38 = call i32 (i8*, ...) @printf(i8* getelementptr inbounds ([4 x i8], [4 x i8]* @.str.2, i64 0, i64 0))
  br label %39

39:                                               ; preds = %37, %35
  ret i32 0
}

; Function Attrs: argmemonly nounwind willreturn
declare void @llvm.memset.p0i8.i64(i8* nocapture writeonly, i8, i64, i1 immarg) #1

declare dso_local i32 @__isoc99_scanf(i8*, ...) #2

; Function Attrs: nounwind readonly
declare dso_local i64 @strlen(i8*) #3

declare dso_local void @qsort(i8*, i64, i64, i32 (i8*, i8*)*) #2

; Function Attrs: noinline nounwind uwtable
define dso_local i32 @compare(i8* %0, i8* %1) #0 {
  %3 = alloca i8*, align 8
  %4 = alloca i8*, align 8
  store i8* %0, i8** %3, align 8
  store i8* %1, i8** %4, align 8
  %5 = load i8*, i8** %4, align 8
  %6 = load i8, i8* %5, align 1
  %7 = sext i8 %6 to i32
  %8 = load i8*, i8** %3, align 8
  %9 = load i8, i8* %8, align 1
  %10 = sext i8 %9 to i32
  %11 = sub nsw i32 %7, %10
  ret i32 %11
}

; Function Attrs: nounwind readonly
declare dso_local i32 @strcmp(i8*, i8*) #3

declare dso_local i32 @printf(i8*, ...) #2


!llvm.module.flags = !{!0}
!llvm.ident = !{!1}

!0 = !{i32 1, !"wchar_size", i32 4}
!1 = !{!"clang version 10.0.0-4ubuntu1 "}
